target datalayout = "e-m:e-p270:32:32-p271:32:32-p272:64:64-i64:64-i128:128-f80:128-n8:16:32:64-S128"
target triple = "x86_64-pc-linux-gnu"

%struct.cli_ctx_tag = type { ptr, ptr, ptr, ptr, ptr, ptr, ptr, i64, ptr, i32, i32, ptr, i32, i32, ptr, [16 x i8], ptr, ptr, ptr, ptr, ptr, ptr, %struct.timeval, i8, i8 }
%struct.timeval = type { i64, i64 }
%struct.cl_fmap = type { ptr, ptr, ptr, i64, i64, i64, i64, i8, i8, i8, i64, i64, i64, i64, ptr, ptr, ptr, ptr, ptr, ptr, ptr, i8, [16 x i8], i8, [20 x i8], i8, [32 x i8], ptr, ptr }
%struct.cl_engine = type { i32, i32, i32, [2 x i32], i32, i32, i32, ptr, i32, i64, i32, i32, i64, i64, i32, i32, i32, i32, ptr, ptr, ptr, ptr, ptr, ptr, ptr, ptr, ptr, ptr, ptr, ptr, ptr, ptr, ptr, ptr, ptr, ptr, ptr, i64, ptr, %struct.crtmgr, ptr, ptr, ptr, ptr, ptr, ptr, ptr, ptr, ptr, ptr, ptr, ptr, ptr, ptr, ptr, ptr, ptr, %struct.cli_all_bc, [7 x ptr], [7 x i32], i32, i32, i32, i32, i64, i64, i64, i64, i64, ptr, ptr, ptr, ptr, ptr, ptr, ptr, ptr, ptr, i32, i32, i32, i64, i64, i64, ptr }
%struct.crtmgr = type { ptr, i32 }
%struct.cli_all_bc = type { ptr, i32, ptr, %struct.cli_environment, i32 }
%struct.cli_environment = type { i32, i32, i32, i32, i32, i32, i32, [65 x i8], [65 x i8], [65 x i8], [65 x i8], [65 x i8], [65 x i8], [65 x i8], i8, i8, i8, i8, i8, i8, i8, i8, i8 }

@.str.98 = private unnamed_addr constant [12 x i8] c"embedded-pe\00", align 1
@.str.99 = private unnamed_addr constant [37 x i8] c"cli_scanembpe: Can't create file %s\0A\00", align 1
@.str.100 = private unnamed_addr constant [14 x i8] c"cli_scanembpe\00", align 1
@.str.101 = private unnamed_addr constant [46 x i8] c"cli_scanembpe: Can't write to temporary file\0A\00", align 1

; Function Attrs: nounwind uwtable
define i32 @cli_magic_scan_desc(i32 noundef %0, ptr noundef %1, ptr noundef %2, ptr noundef %3, i32 noundef %4) #0 {
  %6 = alloca i32, align 4
  %7 = alloca ptr, align 8
  %8 = alloca ptr, align 8
  %9 = alloca ptr, align 8
  %10 = alloca i32, align 4
  store i32 %0, ptr %6, align 4
  store ptr %1, ptr %7, align 8
  store ptr %2, ptr %8, align 8
  store ptr %3, ptr %9, align 8
  store i32 %4, ptr %10, align 4
  %11 = load i32, ptr %6, align 4
  %12 = load ptr, ptr %7, align 8
  %13 = load ptr, ptr %8, align 8
  %14 = load ptr, ptr %9, align 8
  %15 = load i32, ptr %10, align 4
  %16 = call i32 @cli_magic_scan_desc_type(i32 noundef %11, ptr noundef %12, ptr noundef %13, i32 noundef 0, ptr noundef %14, i32 noundef %15)
  ret i32 %16
}

; Function Attrs: nounwind uwtable
define internal ptr @fmap_need_off_once(ptr noundef %0, i64 noundef %1, i64 noundef %2) #0 {
  %4 = alloca ptr, align 8
  %5 = alloca i64, align 8
  %6 = alloca i64, align 8
  store ptr %0, ptr %4, align 8
  store i64 %1, ptr %5, align 8
  store i64 %2, ptr %6, align 8
  %7 = load ptr, ptr %4, align 8
  %8 = getelementptr inbounds %struct.cl_fmap, ptr %7, i32 0, i32 15
  %9 = load ptr, ptr %8, align 8
  %10 = load ptr, ptr %4, align 8
  %11 = load i64, ptr %5, align 8
  %12 = load i64, ptr %6, align 8
  %13 = call ptr %9(ptr noundef %10, i64 noundef %11, i64 noundef %12, i32 noundef 0)
  ret ptr %13
}

; Function Attrs: nounwind uwtable
define internal i32 @cli_scanembpe(ptr noundef %0, i64 noundef %1) #0 {
  %3 = alloca i32, align 4
  %4 = alloca ptr, align 8
  %5 = alloca i64, align 8
  %6 = alloca i32, align 4
  %7 = alloca i32, align 4
  %8 = alloca i64, align 8
  %9 = alloca i64, align 8
  %10 = alloca i64, align 8
  %11 = alloca ptr, align 8
  %12 = alloca ptr, align 8
  %13 = alloca ptr, align 8
  %14 = alloca i32, align 4
  store ptr %0, ptr %4, align 8
  store i64 %1, ptr %5, align 8
  store i32 0, ptr %6, align 4
  store i64 0, ptr %9, align 8
  %15 = load ptr, ptr %4, align 8
  %16 = getelementptr inbounds %struct.cli_ctx_tag, ptr %15, i32 0, i32 14
  %17 = load ptr, ptr %16, align 8
  store ptr %17, ptr %13, align 8
  %18 = load ptr, ptr %4, align 8
  %19 = getelementptr inbounds %struct.cli_ctx_tag, ptr %18, i32 0, i32 2
  %20 = load ptr, ptr %19, align 8
  %21 = call ptr @cli_gentemp_with_prefix(ptr noundef %20, ptr noundef @.str.98)
  store ptr %21, ptr %12, align 8
  %22 = load ptr, ptr %12, align 8
  %23 = icmp ne ptr %22, null
  br i1 %23, label %25, label %24

24:                                               ; preds = %2
  store i32 20, ptr %3, align 4
  br label %171

25:                                               ; preds = %2
  %26 = load ptr, ptr %12, align 8
  %27 = call i32 (ptr, i32, ...) @open(ptr noundef %26, i32 noundef 578, i32 noundef 384)
  store i32 %27, ptr %7, align 4
  %28 = icmp slt i32 %27, 0
  br i1 %28, label %29, label %32

29:                                               ; preds = %25
  %30 = load ptr, ptr %12, align 8
  call void (ptr, ...) @cli_errmsg(ptr noundef @.str.99, ptr noundef %30)
  %31 = load ptr, ptr %12, align 8
  call void @free(ptr noundef %31) #11
  store i32 9, ptr %3, align 4
  br label %171

32:                                               ; preds = %25
  %33 = load ptr, ptr %13, align 8
  %34 = getelementptr inbounds %struct.cl_fmap, ptr %33, i32 0, i32 13
  %35 = load i64, ptr %34, align 8
  %36 = load i64, ptr %5, align 8
  %37 = sub i64 %35, %36
  store i64 %37, ptr %10, align 8
  br label %38

38:                                               ; preds = %118, %32
  %39 = load i64, ptr %10, align 8
  %40 = load ptr, ptr %13, align 8
  %41 = getelementptr inbounds %struct.cl_fmap, ptr %40, i32 0, i32 5
  %42 = load i64, ptr %41, align 8
  %43 = icmp ult i64 %39, %42
  br i1 %43, label %44, label %46

44:                                               ; preds = %38
  %45 = load i64, ptr %10, align 8
  br label %50

46:                                               ; preds = %38
  %47 = load ptr, ptr %13, align 8
  %48 = getelementptr inbounds %struct.cl_fmap, ptr %47, i32 0, i32 5
  %49 = load i64, ptr %48, align 8
  br label %50

50:                                               ; preds = %46, %44
  %51 = phi i64 [ %45, %44 ], [ %49, %46 ]
  store i64 %51, ptr %8, align 8
  %52 = load i64, ptr %8, align 8
  %53 = icmp ne i64 %52, 0
  br i1 %53, label %55, label %54

54:                                               ; preds = %50
  br label %119

55:                                               ; preds = %50
  %56 = load ptr, ptr %13, align 8
  %57 = load i64, ptr %5, align 8
  %58 = load i64, ptr %9, align 8
  %59 = add i64 %57, %58
  %60 = load i64, ptr %8, align 8
  %61 = call ptr @fmap_need_off_once(ptr noundef %56, i64 noundef %59, i64 noundef %60)
  store ptr %61, ptr %11, align 8
  %62 = icmp ne ptr %61, null
  br i1 %62, label %81, label %63

63:                                               ; preds = %55
  %64 = load i32, ptr %7, align 4
  %65 = call i32 @close(i32 noundef %64)
  %66 = load ptr, ptr %4, align 8
  %67 = getelementptr inbounds %struct.cli_ctx_tag, ptr %66, i32 0, i32 6
  %68 = load ptr, ptr %67, align 8
  %69 = getelementptr inbounds %struct.cl_engine, ptr %68, i32 0, i32 8
  %70 = load i32, ptr %69, align 8
  %71 = icmp ne i32 %70, 0
  br i1 %71, label %79, label %72

72:                                               ; preds = %63
  %73 = load ptr, ptr %12, align 8
  %74 = call i32 @cli_unlink(ptr noundef %73)
  %75 = icmp ne i32 %74, 0
  br i1 %75, label %76, label %78

76:                                               ; preds = %72
  %77 = load ptr, ptr %12, align 8
  call void @free(ptr noundef %77) #11
  store i32 10, ptr %3, align 4
  br label %171

78:                                               ; preds = %72
  br label %79

79:                                               ; preds = %78, %63
  %80 = load ptr, ptr %12, align 8
  call void @free(ptr noundef %80) #11
  store i32 12, ptr %3, align 4
  br label %171

81:                                               ; preds = %55
  %82 = load i64, ptr %8, align 8
  %83 = load i64, ptr %9, align 8
  %84 = add i64 %83, %82
  store i64 %84, ptr %9, align 8
  %85 = load i64, ptr %8, align 8
  %86 = load i64, ptr %10, align 8
  %87 = sub i64 %86, %85
  store i64 %87, ptr %10, align 8
  %88 = load ptr, ptr %4, align 8
  %89 = load i64, ptr %9, align 8
  %90 = call i32 @cli_checklimits(ptr noundef @.str.100, ptr noundef %88, i64 noundef %89, i64 noundef 0, i64 noundef 0)
  %91 = icmp ne i32 %90, 0
  br i1 %91, label %92, label %93

92:                                               ; preds = %81
  br label %119

93:                                               ; preds = %81
  %94 = load i32, ptr %7, align 4
  %95 = load ptr, ptr %11, align 8
  %96 = load i64, ptr %8, align 8
  %97 = call i64 @cli_writen(i32 noundef %94, ptr noundef %95, i64 noundef %96)
  %98 = load i64, ptr %8, align 8
  %99 = icmp ne i64 %97, %98
  br i1 %99, label %100, label %118

100:                                              ; preds = %93
  call void (ptr, ...) @cli_dbgmsg(ptr noundef @.str.101)
  %101 = load i32, ptr %7, align 4
  %102 = call i32 @close(i32 noundef %101)
  %103 = load ptr, ptr %4, align 8
  %104 = getelementptr inbounds %struct.cli_ctx_tag, ptr %103, i32 0, i32 6
  %105 = load ptr, ptr %104, align 8
  %106 = getelementptr inbounds %struct.cl_engine, ptr %105, i32 0, i32 8
  %107 = load i32, ptr %106, align 8
  %108 = icmp ne i32 %107, 0
  br i1 %108, label %116, label %109

109:                                              ; preds = %100
  %110 = load ptr, ptr %12, align 8
  %111 = call i32 @cli_unlink(ptr noundef %110)
  %112 = icmp ne i32 %111, 0
  br i1 %112, label %113, label %115

113:                                              ; preds = %109
  %114 = load ptr, ptr %12, align 8
  call void @free(ptr noundef %114) #11
  store i32 10, ptr %3, align 4
  br label %171

115:                                              ; preds = %109
  br label %116

116:                                              ; preds = %115, %100
  %117 = load ptr, ptr %12, align 8
  call void @free(ptr noundef %117) #11
  store i32 14, ptr %3, align 4
  br label %171

118:                                              ; preds = %93
  br label %38

119:                                              ; preds = %92, %54
  %120 = load ptr, ptr %4, align 8
  %121 = getelementptr inbounds %struct.cli_ctx_tag, ptr %120, i32 0, i32 10
  %122 = load i32, ptr %121, align 4
  store i32 %122, ptr %14, align 4
  %123 = load ptr, ptr %4, align 8
  %124 = getelementptr inbounds %struct.cli_ctx_tag, ptr %123, i32 0, i32 10
  store i32 1, ptr %124, align 4
  %125 = load i32, ptr %7, align 4
  %126 = load ptr, ptr %12, align 8
  %127 = load ptr, ptr %4, align 8
  %128 = call i32 @cli_magic_scan_desc(i32 noundef %125, ptr noundef %126, ptr noundef %127, ptr noundef null, i32 noundef 0)
  store i32 %128, ptr %6, align 4
  %129 = load i32, ptr %14, align 4
  %130 = load ptr, ptr %4, align 8
  %131 = getelementptr inbounds %struct.cli_ctx_tag, ptr %130, i32 0, i32 10
  store i32 %129, ptr %131, align 4
  %132 = load i32, ptr %6, align 4
  %133 = icmp ne i32 %132, 0
  br i1 %133, label %134, label %153

134:                                              ; preds = %119
  %135 = load i32, ptr %7, align 4
  %136 = call i32 @close(i32 noundef %135)
  %137 = load ptr, ptr %4, align 8
  %138 = getelementptr inbounds %struct.cli_ctx_tag, ptr %137, i32 0, i32 6
  %139 = load ptr, ptr %138, align 8
  %140 = getelementptr inbounds %struct.cl_engine, ptr %139, i32 0, i32 8
  %141 = load i32, ptr %140, align 8
  %142 = icmp ne i32 %141, 0
  br i1 %142, label %150, label %143

143:                                              ; preds = %134
  %144 = load ptr, ptr %12, align 8
  %145 = call i32 @cli_unlink(ptr noundef %144)
  %146 = icmp ne i32 %145, 0
  br i1 %146, label %147, label %149

147:                                              ; preds = %143
  %148 = load ptr, ptr %12, align 8
  call void @free(ptr noundef %148) #11
  store i32 10, ptr %3, align 4
  br label %171

149:                                              ; preds = %143
  br label %150

150:                                              ; preds = %149, %134
  %151 = load ptr, ptr %12, align 8
  call void @free(ptr noundef %151) #11
  %152 = load i32, ptr %6, align 4
  store i32 %152, ptr %3, align 4
  br label %171

153:                                              ; preds = %119
  %154 = load i32, ptr %7, align 4
  %155 = call i32 @close(i32 noundef %154)
  %156 = load ptr, ptr %4, align 8
  %157 = getelementptr inbounds %struct.cli_ctx_tag, ptr %156, i32 0, i32 6
  %158 = load ptr, ptr %157, align 8
  %159 = getelementptr inbounds %struct.cl_engine, ptr %158, i32 0, i32 8
  %160 = load i32, ptr %159, align 8
  %161 = icmp ne i32 %160, 0
  br i1 %161, label %169, label %162

162:                                              ; preds = %153
  %163 = load ptr, ptr %12, align 8
  %164 = call i32 @cli_unlink(ptr noundef %163)
  %165 = icmp ne i32 %164, 0
  br i1 %165, label %166, label %168

166:                                              ; preds = %162
  %167 = load ptr, ptr %12, align 8
  call void @free(ptr noundef %167) #11
  store i32 10, ptr %3, align 4
  br label %171

168:                                              ; preds = %162
  br label %169

169:                                              ; preds = %168, %153
  %170 = load ptr, ptr %12, align 8
  call void @free(ptr noundef %170) #11
  store i32 0, ptr %3, align 4
  br label %171

171:                                              ; preds = %169, %166, %150, %147, %116, %113, %79, %76, %29, %24
  %172 = load i32, ptr %3, align 4
  ret i32 %172
}